; ModuleID = '1656.c'
source_filename = "1656.c"
target datalayout = "e-m:e-p270:32:32-p271:32:32-p272:64:64-i64:64-f80:128-n8:16:32:64-S128"
target triple = "x86_64-pc-linux-gnu"

%struct.student = type { [50 x i8], %struct.student* }

@.str = private unnamed_addr constant [4 x i8] c"end\00", align 1

; Function Attrs: noinline nounwind uwtable
define dso_local void @main() #0 {
  %1 = alloca i32, align 4
  %2 = alloca i32, align 4
  %3 = alloca i32, align 4
  %4 = alloca i32, align 4
  %5 = alloca %struct.student*, align 8
  %6 = alloca %struct.student*, align 8
  %7 = alloca %struct.student*, align 8
  store i32 0, i32* %3, align 4
  br label %8

8:                                                ; preds = %31, %0
  %9 = load %struct.student*, %struct.student** %7, align 8
  store %struct.student* %9, %struct.student** %5, align 8
  %10 = load i32, i32* %3, align 4
  %11 = icmp eq i32 %10, 0
  br i1 %11, label %12, label %15

12:                                               ; preds = %8
  %13 = load %struct.student*, %struct.student** %5, align 8
  %14 = getelementptr inbounds %struct.student, %struct.student* %13, i32 0, i32 1
  store %struct.student* null, %struct.student** %14, align 8
  br label %15

15:                                               ; preds = %12, %8
  %16 = load %struct.student*, %struct.student** %5, align 8
  %17 = getelementptr inbounds %struct.student, %struct.student* %16, i32 0, i32 0
  %18 = getelementptr inbounds [50 x i8], [50 x i8]* %17, i64 0, i64 0
  %19 = call i32 (i8*, ...) bitcast (i32 (...)* @gets to i32 (i8*, ...)*)(i8* %18)
  %20 = load %struct.student*, %struct.student** %5, align 8
  %21 = getelementptr inbounds %struct.student, %struct.student* %20, i32 0, i32 0
  %22 = getelementptr inbounds [50 x i8], [50 x i8]* %21, i64 0, i64 0
  %23 = call i32 @strcmp(i8* %22, i8* getelementptr inbounds ([4 x i8], [4 x i8]* @.str, i64 0, i64 0)) #3
  %24 = icmp eq i32 %23, 0
  br i1 %24, label %25, label %26

25:                                               ; preds = %15
  br label %34

26:                                               ; preds = %15
  %27 = load %struct.student*, %struct.student** %6, align 8
  %28 = load %struct.student*, %struct.student** %5, align 8
  %29 = getelementptr inbounds %struct.student, %struct.student* %28, i32 0, i32 1
  store %struct.student* %27, %struct.student** %29, align 8
  %30 = load %struct.student*, %struct.student** %5, align 8
  store %struct.student* %30, %struct.student** %6, align 8
  br label %31

31:                                               ; preds = %26
  %32 = load i32, i32* %3, align 4
  %33 = add nsw i32 %32, 1
  store i32 %33, i32* %3, align 4
  br label %8

34:                                               ; preds = %25
  %35 = load %struct.student*, %struct.student** %6, align 8
  store %struct.student* %35, %struct.student** %5, align 8
  store i32 0, i32* %4, align 4
  br label %36

36:                                               ; preds = %45, %34
  %37 = load i32, i32* %4, align 4
  %38 = load i32, i32* %3, align 4
  %39 = icmp slt i32 %37, %38
  br i1 %39, label %40, label %51

40:                                               ; preds = %36
  %41 = load %struct.student*, %struct.student** %5, align 8
  %42 = getelementptr inbounds %struct.student, %struct.student* %41, i32 0, i32 0
  %43 = getelementptr inbounds [50 x i8], [50 x i8]* %42, i64 0, i64 0
  %44 = call i32 @puts(i8* %43)
  br label %45

45:                                               ; preds = %40
  %46 = load i32, i32* %4, align 4
  %47 = add nsw i32 %46, 1
  store i32 %47, i32* %4, align 4
  %48 = load %struct.student*, %struct.student** %5, align 8
  %49 = getelementptr inbounds %struct.student, %struct.student* %48, i32 0, i32 1
  %50 = load %struct.student*, %struct.student** %49, align 8
  store %struct.student* %50, %struct.student** %5, align 8
  br label %36

51:                                               ; preds = %36
  ret void
}

declare dso_local i32 @gets(...) #1

; Function Attrs: nounwind readonly
declare dso_local i32 @strcmp(i8*, i8*) #2

declare dso_local i32 @puts(i8*) #1


!llvm.module.flags = !{!0}
!llvm.ident = !{!1}

!0 = !{i32 1, !"wchar_size", i32 4}
!1 = !{!"clang version 10.0.0-4ubuntu1 "}
